target datalayout = "e-m:e-p270:32:32-p271:32:32-p272:64:64-i64:64-i128:128-f80:128-n8:16:32:64-S128"
target triple = "x86_64-pc-linux-gnu"

%struct.zlentry = type { i32, i32, i32, i32, i32, i8, ptr }
%struct.ziplistEntry = type { ptr, i32, i64 }

@.str.1 = private unnamed_addr constant [10 x i8] c"ziplist.c\00", align 1
@.str.32 = private unnamed_addr constant [35 x i8] c"ziplistGet(p, &key, &klen, &klval)\00", align 1
@.str.33 = private unnamed_addr constant [2 x i8] c"p\00", align 1
@.str.35 = private unnamed_addr constant [36 x i8] c"zipEntrySafe(zl, zlbytes, p, &e, 0)\00", align 1

; Function Attrs: inlinehint nounwind uwtable
define internal i32 @zipRawEntryLengthSafe(ptr noundef %0, i64 noundef %1, ptr noundef %2) #8 {
  %4 = alloca ptr, align 8
  %5 = alloca i64, align 8
  %6 = alloca ptr, align 8
  %7 = alloca %struct.zlentry, align 8
  store ptr %0, ptr %4, align 8, !tbaa !5
  store i64 %1, ptr %5, align 8, !tbaa !10
  store ptr %2, ptr %6, align 8, !tbaa !5
  call void @llvm.lifetime.start.p0(i64 32, ptr %7) #11
  %8 = load ptr, ptr %4, align 8, !tbaa !5
  %9 = load i64, ptr %5, align 8, !tbaa !10
  %10 = load ptr, ptr %6, align 8, !tbaa !5
  %11 = call i32 @zipEntrySafe(ptr noundef %8, i64 noundef %9, ptr noundef %10, ptr noundef %7, i32 noundef 0)
  %12 = icmp ne i32 %11, 0
  %13 = xor i1 %12, true
  %14 = xor i1 %13, true
  %15 = zext i1 %14 to i32
  %16 = sext i32 %15 to i64
  %17 = call i64 @llvm.expect.i64(i64 %16, i64 1)
  %18 = icmp ne i64 %17, 0
  br i1 %18, label %19, label %20

19:                                               ; preds = %3
  br label %22

20:                                               ; preds = %3
  call void @_serverAssert(ptr noundef @.str.35, ptr noundef @.str.1, i32 noundef 693)
  call void @abort() #12
  unreachable

21:                                               ; No predecessors!
  br label %22

22:                                               ; preds = %21, %19
  %23 = getelementptr inbounds nuw %struct.zlentry, ptr %7, i32 0, i32 4
  %24 = load i32, ptr %23, align 8, !tbaa !21
  %25 = getelementptr inbounds nuw %struct.zlentry, ptr %7, i32 0, i32 3
  %26 = load i32, ptr %25, align 4, !tbaa !23
  %27 = add i32 %24, %26
  call void @llvm.lifetime.end.p0(i64 32, ptr %7) #11
  ret i32 %27
}

; Function Attrs: inlinehint nounwind uwtable
define internal void @ziplistSaveValue(ptr noundef %0, i32 noundef %1, i64 noundef %2, ptr noundef %3) #8 {
  %5 = alloca ptr, align 8
  %6 = alloca i32, align 4
  %7 = alloca i64, align 8
  %8 = alloca ptr, align 8
  store ptr %0, ptr %5, align 8, !tbaa !5
  store i32 %1, ptr %6, align 4, !tbaa !12
  store i64 %2, ptr %7, align 8, !tbaa !17
  store ptr %3, ptr %8, align 8, !tbaa !47
  %9 = load ptr, ptr %5, align 8, !tbaa !5
  %10 = load ptr, ptr %8, align 8, !tbaa !47
  %11 = getelementptr inbounds nuw %struct.ziplistEntry, ptr %10, i32 0, i32 0
  store ptr %9, ptr %11, align 8, !tbaa !55
  %12 = load i32, ptr %6, align 4, !tbaa !12
  %13 = load ptr, ptr %8, align 8, !tbaa !47
  %14 = getelementptr inbounds nuw %struct.ziplistEntry, ptr %13, i32 0, i32 1
  store i32 %12, ptr %14, align 8, !tbaa !57
  %15 = load i64, ptr %7, align 8, !tbaa !17
  %16 = load ptr, ptr %8, align 8, !tbaa !47
  %17 = getelementptr inbounds nuw %struct.ziplistEntry, ptr %16, i32 0, i32 2
  store i64 %15, ptr %17, align 8, !tbaa !58
  ret void
}

; Function Attrs: nounwind uwtable
define dso_local i32 @ziplistLen(ptr noundef %0) #0 {
  %2 = alloca ptr, align 8
  %3 = alloca i32, align 4
  %4 = alloca ptr, align 8
  %5 = alloca i64, align 8
  store ptr %0, ptr %2, align 8, !tbaa !5
  call void @llvm.lifetime.start.p0(i64 4, ptr %3) #11
  store i32 0, ptr %3, align 4, !tbaa !12
  %6 = load ptr, ptr %2, align 8, !tbaa !5
  %7 = getelementptr inbounds nuw i8, ptr %6, i64 8
  %8 = load i16, ptr %7, align 2, !tbaa !19
  %9 = zext i16 %8 to i32
  %10 = icmp slt i32 %9, 65535
  br i1 %10, label %11, label %16

11:                                               ; preds = %1
  %12 = load ptr, ptr %2, align 8, !tbaa !5
  %13 = getelementptr inbounds nuw i8, ptr %12, i64 8
  %14 = load i16, ptr %13, align 2, !tbaa !19
  %15 = zext i16 %14 to i32
  store i32 %15, ptr %3, align 4, !tbaa !12
  br label %46

16:                                               ; preds = %1
  call void @llvm.lifetime.start.p0(i64 8, ptr %4) #11
  %17 = load ptr, ptr %2, align 8, !tbaa !5
  %18 = getelementptr inbounds nuw i8, ptr %17, i64 10
  store ptr %18, ptr %4, align 8, !tbaa !5
  call void @llvm.lifetime.start.p0(i64 8, ptr %5) #11
  %19 = load ptr, ptr %2, align 8, !tbaa !5
  %20 = load i32, ptr %19, align 4, !tbaa !12
  %21 = zext i32 %20 to i64
  store i64 %21, ptr %5, align 8, !tbaa !10
  br label %22

22:                                               ; preds = %27, %16
  %23 = load ptr, ptr %4, align 8, !tbaa !5
  %24 = load i8, ptr %23, align 1, !tbaa !14
  %25 = zext i8 %24 to i32
  %26 = icmp ne i32 %25, 255
  br i1 %26, label %27, label %37

27:                                               ; preds = %22
  %28 = load ptr, ptr %2, align 8, !tbaa !5
  %29 = load i64, ptr %5, align 8, !tbaa !10
  %30 = load ptr, ptr %4, align 8, !tbaa !5
  %31 = call i32 @zipRawEntryLengthSafe(ptr noundef %28, i64 noundef %29, ptr noundef %30)
  %32 = load ptr, ptr %4, align 8, !tbaa !5
  %33 = zext i32 %31 to i64
  %34 = getelementptr inbounds nuw i8, ptr %32, i64 %33
  store ptr %34, ptr %4, align 8, !tbaa !5
  %35 = load i32, ptr %3, align 4, !tbaa !12
  %36 = add i32 %35, 1
  store i32 %36, ptr %3, align 4, !tbaa !12
  br label %22, !llvm.loop !42

37:                                               ; preds = %22
  %38 = load i32, ptr %3, align 4, !tbaa !12
  %39 = icmp ult i32 %38, 65535
  br i1 %39, label %40, label %45

40:                                               ; preds = %37
  %41 = load i32, ptr %3, align 4, !tbaa !12
  %42 = trunc i32 %41 to i16
  %43 = load ptr, ptr %2, align 8, !tbaa !5
  %44 = getelementptr inbounds nuw i8, ptr %43, i64 8
  store i16 %42, ptr %44, align 2, !tbaa !19
  br label %45

45:                                               ; preds = %40, %37
  call void @llvm.lifetime.end.p0(i64 8, ptr %5) #11
  call void @llvm.lifetime.end.p0(i64 8, ptr %4) #11
  br label %46

46:                                               ; preds = %45, %11
  %47 = load i32, ptr %3, align 4, !tbaa !12
  call void @llvm.lifetime.end.p0(i64 4, ptr %3) #11
  ret i32 %47
}

; Function Attrs: nounwind uwtable
define dso_local i32 @ziplistRandomPairsUnique(ptr noundef %0, i32 noundef %1, ptr noundef %2, ptr noundef %3) #0 {
  %5 = alloca ptr, align 8
  %6 = alloca i32, align 4
  %7 = alloca ptr, align 8
  %8 = alloca ptr, align 8
  %9 = alloca ptr, align 8
  %10 = alloca ptr, align 8
  %11 = alloca i32, align 4
  %12 = alloca i64, align 8
  %13 = alloca i32, align 4
  %14 = alloca i32, align 4
  %15 = alloca i32, align 4
  %16 = alloca i32, align 4
  %17 = alloca double, align 8
  %18 = alloca double, align 8
  store ptr %0, ptr %5, align 8, !tbaa !5
  store i32 %1, ptr %6, align 4, !tbaa !12
  store ptr %2, ptr %7, align 8, !tbaa !47
  store ptr %3, ptr %8, align 8, !tbaa !47
  call void @llvm.lifetime.start.p0(i64 8, ptr %9) #11
  call void @llvm.lifetime.start.p0(i64 8, ptr %10) #11
  call void @llvm.lifetime.start.p0(i64 4, ptr %11) #11
  store i32 0, ptr %11, align 4, !tbaa !12
  call void @llvm.lifetime.start.p0(i64 8, ptr %12) #11
  store i64 0, ptr %12, align 8, !tbaa !17
  call void @llvm.lifetime.start.p0(i64 4, ptr %13) #11
  %19 = load ptr, ptr %5, align 8, !tbaa !5
  %20 = call i32 @ziplistLen(ptr noundef %19)
  %21 = udiv i32 %20, 2
  store i32 %21, ptr %13, align 4, !tbaa !12
  call void @llvm.lifetime.start.p0(i64 4, ptr %14) #11
  store i32 0, ptr %14, align 4, !tbaa !12
  %22 = load i32, ptr %6, align 4, !tbaa !12
  %23 = load i32, ptr %13, align 4, !tbaa !12
  %24 = icmp ugt i32 %22, %23
  br i1 %24, label %25, label %27

25:                                               ; preds = %4
  %26 = load i32, ptr %13, align 4, !tbaa !12
  store i32 %26, ptr %6, align 4, !tbaa !12
  br label %27

27:                                               ; preds = %25, %4
  %28 = load ptr, ptr %5, align 8, !tbaa !5
  %29 = call ptr @ziplistIndex(ptr noundef %28, i32 noundef 0)
  store ptr %29, ptr %9, align 8, !tbaa !5
  call void @llvm.lifetime.start.p0(i64 4, ptr %15) #11
  store i32 0, ptr %15, align 4, !tbaa !12
  call void @llvm.lifetime.start.p0(i64 4, ptr %16) #11
  %30 = load i32, ptr %6, align 4, !tbaa !12
  store i32 %30, ptr %16, align 4, !tbaa !12
  br label %31

31:                                               ; preds = %134, %27
  %32 = load i32, ptr %15, align 4, !tbaa !12
  %33 = load i32, ptr %6, align 4, !tbaa !12
  %34 = icmp ult i32 %32, %33
  br i1 %34, label %35, label %38

35:                                               ; preds = %31
  %36 = load ptr, ptr %9, align 8, !tbaa !5
  %37 = icmp ne ptr %36, null
  br label %38

38:                                               ; preds = %35, %31
  %39 = phi i1 [ false, %31 ], [ %37, %35 ]
  br i1 %39, label %40, label %140

40:                                               ; preds = %38
  call void @llvm.lifetime.start.p0(i64 8, ptr %17) #11
  %41 = call i32 @rand() #11
  %42 = sitofp i32 %41 to double
  %43 = fdiv double %42, 0x41DFFFFFFFC00000
  store double %43, ptr %17, align 8, !tbaa !59
  call void @llvm.lifetime.start.p0(i64 8, ptr %18) #11
  %44 = load i32, ptr %16, align 4, !tbaa !12
  %45 = uitofp i32 %44 to double
  %46 = load i32, ptr %13, align 4, !tbaa !12
  %47 = load i32, ptr %14, align 4, !tbaa !12
  %48 = sub i32 %46, %47
  %49 = uitofp i32 %48 to double
  %50 = fdiv double %45, %49
  store double %50, ptr %18, align 8, !tbaa !59
  %51 = load double, ptr %17, align 8, !tbaa !59
  %52 = load double, ptr %18, align 8, !tbaa !59
  %53 = fcmp ole double %51, %52
  br i1 %53, label %54, label %118

54:                                               ; preds = %40
  %55 = load ptr, ptr %9, align 8, !tbaa !5
  %56 = call i32 @ziplistGet(ptr noundef %55, ptr noundef %10, ptr noundef %11, ptr noundef %12)
  %57 = icmp ne i32 %56, 0
  %58 = xor i1 %57, true
  %59 = xor i1 %58, true
  %60 = zext i1 %59 to i32
  %61 = sext i32 %60 to i64
  %62 = call i64 @llvm.expect.i64(i64 %61, i64 1)
  %63 = icmp ne i64 %62, 0
  br i1 %63, label %64, label %65

64:                                               ; preds = %54
  br label %67

65:                                               ; preds = %54
  call void @_serverAssert(ptr noundef @.str.32, ptr noundef @.str.1, i32 noundef 1668)
  call void @abort() #12
  unreachable

66:                                               ; No predecessors!
  br label %67

67:                                               ; preds = %66, %64
  %68 = load ptr, ptr %10, align 8, !tbaa !5
  %69 = load i32, ptr %11, align 4, !tbaa !12
  %70 = load i64, ptr %12, align 8, !tbaa !17
  %71 = load ptr, ptr %7, align 8, !tbaa !47
  %72 = load i32, ptr %15, align 4, !tbaa !12
  %73 = zext i32 %72 to i64
  %74 = getelementptr inbounds nuw %struct.ziplistEntry, ptr %71, i64 %73
  call void @ziplistSaveValue(ptr noundef %68, i32 noundef %69, i64 noundef %70, ptr noundef %74)
  %75 = load ptr, ptr %5, align 8, !tbaa !5
  %76 = load ptr, ptr %9, align 8, !tbaa !5
  %77 = call ptr @ziplistNext(ptr noundef %75, ptr noundef %76)
  store ptr %77, ptr %9, align 8, !tbaa !5
  %78 = load ptr, ptr %9, align 8, !tbaa !5
  %79 = icmp ne ptr %78, null
  %80 = xor i1 %79, true
  %81 = xor i1 %80, true
  %82 = zext i1 %81 to i32
  %83 = sext i32 %82 to i64
  %84 = call i64 @llvm.expect.i64(i64 %83, i64 1)
  %85 = icmp ne i64 %84, 0
  br i1 %85, label %86, label %87

86:                                               ; preds = %67
  br label %89

87:                                               ; preds = %67
  call void @_serverAssert(ptr noundef @.str.33, ptr noundef @.str.1, i32 noundef 1671)
  call void @abort() #12
  unreachable

88:                                               ; No predecessors!
  br label %89

89:                                               ; preds = %88, %86
  %90 = load ptr, ptr %8, align 8, !tbaa !47
  %91 = icmp ne ptr %90, null
  br i1 %91, label %92, label %113

92:                                               ; preds = %89
  %93 = load ptr, ptr %9, align 8, !tbaa !5
  %94 = call i32 @ziplistGet(ptr noundef %93, ptr noundef %10, ptr noundef %11, ptr noundef %12)
  %95 = icmp ne i32 %94, 0
  %96 = xor i1 %95, true
  %97 = xor i1 %96, true
  %98 = zext i1 %97 to i32
  %99 = sext i32 %98 to i64
  %100 = call i64 @llvm.expect.i64(i64 %99, i64 1)
  %101 = icmp ne i64 %100, 0
  br i1 %101, label %102, label %103

102:                                              ; preds = %92
  br label %105

103:                                              ; preds = %92
  call void @_serverAssert(ptr noundef @.str.32, ptr noundef @.str.1, i32 noundef 1673)
  call void @abort() #12
  unreachable

104:                                              ; No predecessors!
  br label %105

105:                                              ; preds = %104, %102
  %106 = load ptr, ptr %10, align 8, !tbaa !5
  %107 = load i32, ptr %11, align 4, !tbaa !12
  %108 = load i64, ptr %12, align 8, !tbaa !17
  %109 = load ptr, ptr %8, align 8, !tbaa !47
  %110 = load i32, ptr %15, align 4, !tbaa !12
  %111 = zext i32 %110 to i64
  %112 = getelementptr inbounds nuw %struct.ziplistEntry, ptr %109, i64 %111
  call void @ziplistSaveValue(ptr noundef %106, i32 noundef %107, i64 noundef %108, ptr noundef %112)
  br label %113

113:                                              ; preds = %105, %89
  %114 = load i32, ptr %16, align 4, !tbaa !12
  %115 = add i32 %114, -1
  store i32 %115, ptr %16, align 4, !tbaa !12
  %116 = load i32, ptr %15, align 4, !tbaa !12
  %117 = add i32 %116, 1
  store i32 %117, ptr %15, align 4, !tbaa !12
  br label %134

118:                                              ; preds = %40
  %119 = load ptr, ptr %5, align 8, !tbaa !5
  %120 = load ptr, ptr %9, align 8, !tbaa !5
  %121 = call ptr @ziplistNext(ptr noundef %119, ptr noundef %120)
  store ptr %121, ptr %9, align 8, !tbaa !5
  %122 = load ptr, ptr %9, align 8, !tbaa !5
  %123 = icmp ne ptr %122, null
  %124 = xor i1 %123, true
  %125 = xor i1 %124, true
  %126 = zext i1 %125 to i32
  %127 = sext i32 %126 to i64
  %128 = call i64 @llvm.expect.i64(i64 %127, i64 1)
  %129 = icmp ne i64 %128, 0
  br i1 %129, label %130, label %131

130:                                              ; preds = %118
  br label %133

131:                                              ; preds = %118
  call void @_serverAssert(ptr noundef @.str.33, ptr noundef @.str.1, i32 noundef 1680)
  call void @abort() #12
  unreachable

132:                                              ; No predecessors!
  br label %133

133:                                              ; preds = %132, %130
  br label %134

134:                                              ; preds = %133, %113
  %135 = load ptr, ptr %5, align 8, !tbaa !5
  %136 = load ptr, ptr %9, align 8, !tbaa !5
  %137 = call ptr @ziplistNext(ptr noundef %135, ptr noundef %136)
  store ptr %137, ptr %9, align 8, !tbaa !5
  %138 = load i32, ptr %14, align 4, !tbaa !12
  %139 = add i32 %138, 1
  store i32 %139, ptr %14, align 4, !tbaa !12
  call void @llvm.lifetime.end.p0(i64 8, ptr %18) #11
  call void @llvm.lifetime.end.p0(i64 8, ptr %17) #11
  br label %31, !llvm.loop !61

140:                                              ; preds = %38
  %141 = load i32, ptr %15, align 4, !tbaa !12
  call void @llvm.lifetime.end.p0(i64 4, ptr %16) #11
  call void @llvm.lifetime.end.p0(i64 4, ptr %15) #11
  call void @llvm.lifetime.end.p0(i64 4, ptr %14) #11
  call void @llvm.lifetime.end.p0(i64 4, ptr %13) #11
  call void @llvm.lifetime.end.p0(i64 8, ptr %12) #11
  call void @llvm.lifetime.end.p0(i64 4, ptr %11) #11
  call void @llvm.lifetime.end.p0(i64 8, ptr %10) #11
  call void @llvm.lifetime.end.p0(i64 8, ptr %9) #11
  ret i32 %141
}