; Function Attrs: nounwind uwtable
define dso_local i32 @ziplistRandomPairsUnique(ptr noundef %0, i32 noundef %1, ptr noundef writeonly captures(none) %2, ptr noundef writeonly captures(address_is_null) %3) local_unnamed_addr #5 {
  %5 = alloca %struct.zlentry, align 8
  %6 = alloca ptr, align 8
  %7 = alloca i32, align 4
  %8 = alloca i64, align 8
  call void @llvm.lifetime.start.p0(i64 8, ptr nonnull %6) #17
  call void @llvm.lifetime.start.p0(i64 4, ptr nonnull %7) #17
  store i32 0, ptr %7, align 4, !tbaa !5
  call void @llvm.lifetime.start.p0(i64 8, ptr nonnull %8) #17
  store i64 0, ptr %8, align 8, !tbaa !10
  %9 = getelementptr inbounds nuw i8, ptr %0, i64 8
  %10 = load i16, ptr %9, align 2, !tbaa !12
  %.not.i = icmp eq i16 %10, -1
  br i1 %.not.i, label %13, label %11

11:                                               ; preds = %4
  %12 = zext i16 %10 to i32
  br label %ziplistLen.exit

13:                                               ; preds = %4
  %14 = getelementptr inbounds nuw i8, ptr %0, i64 10
  %15 = load i32, ptr %0, align 4, !tbaa !5
  %16 = zext i32 %15 to i64
  %17 = load i8, ptr %14, align 1, !tbaa !9
  %.not1517.i = icmp eq i8 %17, -1
  br i1 %.not1517.i, label %._crit_edge.thread.i, label %.lr.ph.i

.lr.ph.i:                                         ; preds = %13
  %18 = getelementptr inbounds nuw i8, ptr %5, i64 16
  %19 = getelementptr inbounds nuw i8, ptr %5, i64 12
  br label %20

20:                                               ; preds = %zipRawEntryLengthSafe.exit.i, %.lr.ph.i
  %.119.i = phi i32 [ 0, %.lr.ph.i ], [ %28, %zipRawEntryLengthSafe.exit.i ]
  %.01318.i = phi ptr [ %14, %.lr.ph.i ], [ %27, %zipRawEntryLengthSafe.exit.i ]
  call void @llvm.lifetime.start.p0(i64 32, ptr nonnull %5) #17
  %21 = call fastcc i32 @zipEntrySafe(ptr noundef nonnull %0, i64 noundef range(i64 0, 4294967296) %16, ptr noundef nonnull %.01318.i, ptr noundef %5, i32 noundef 0)
  %.not.i.i = icmp eq i32 %21, 0
  br i1 %.not.i.i, label %22, label %zipRawEntryLengthSafe.exit.i, !prof !24

22:                                               ; preds = %20
  tail call void @_serverAssert(ptr noundef nonnull @.str.35, ptr noundef nonnull @.str.1, i32 noundef 693) #17
  tail call void @abort() #18
  unreachable

zipRawEntryLengthSafe.exit.i:                     ; preds = %20
  %23 = load i32, ptr %18, align 8, !tbaa !22
  %24 = load i32, ptr %19, align 4, !tbaa !21
  %25 = add i32 %24, %23
  call void @llvm.lifetime.end.p0(i64 32, ptr nonnull %5) #17
  %26 = zext i32 %25 to i64
  %27 = getelementptr inbounds nuw i8, ptr %.01318.i, i64 %26
  %28 = add i32 %.119.i, 1
  %29 = load i8, ptr %27, align 1, !tbaa !9
  %.not15.i = icmp eq i8 %29, -1
  br i1 %.not15.i, label %._crit_edge.i, label %20, !llvm.loop !36

._crit_edge.i:                                    ; preds = %zipRawEntryLengthSafe.exit.i
  %30 = icmp ult i32 %28, 65535
  br i1 %30, label %._crit_edge.thread.i, label %ziplistLen.exit

._crit_edge.thread.i:                             ; preds = %._crit_edge.i, %13
  %.1.lcssa21.i = phi i32 [ %28, %._crit_edge.i ], [ 0, %13 ]
  %31 = trunc nuw i32 %.1.lcssa21.i to i16
  store i16 %31, ptr %9, align 2, !tbaa !12
  br label %ziplistLen.exit

ziplistLen.exit:                                  ; preds = %11, %._crit_edge.i, %._crit_edge.thread.i
  %.0.i = phi i32 [ %12, %11 ], [ %.1.lcssa21.i, %._crit_edge.thread.i ], [ %28, %._crit_edge.i ]
  %32 = lshr i32 %.0.i, 1
  %spec.select = tail call i32 @llvm.umin.i32(i32 %1, i32 %32)
  %33 = tail call ptr @ziplistIndex(ptr noundef nonnull %0, i32 noundef 0)
  %34 = icmp ne i32 %spec.select, 0
  %35 = icmp ne ptr %33, null
  %36 = and i1 %34, %35
  br i1 %36, label %.lr.ph, label %._crit_edge

.lr.ph:                                           ; preds = %ziplistLen.exit
  %.not45 = icmp eq ptr %3, null
  br i1 %.not45, label %.lr.ph.split.us, label %.lr.ph.split

.lr.ph.split.us:                                  ; preds = %.lr.ph, %61
  %.03254.us = phi ptr [ %62, %61 ], [ %33, %.lr.ph ]
  %.03353.us = phi i32 [ %.134.us, %61 ], [ %spec.select, %.lr.ph ]
  %.03552.us = phi i32 [ %.136.us, %61 ], [ 0, %.lr.ph ]
  %.03751.us = phi i32 [ %63, %61 ], [ 0, %.lr.ph ]
  %37 = call i32 @rand() #17
  %38 = sitofp i32 %37 to double
  %39 = fdiv double %38, 0x41DFFFFFFFC00000
  %40 = uitofp i32 %.03353.us to double
  %41 = sub i32 %32, %.03751.us
  %42 = uitofp i32 %41 to double
  %43 = fdiv double %40, %42
  %44 = fcmp ugt double %39, %43
  br i1 %44, label %59, label %45

45:                                               ; preds = %.lr.ph.split.us
  %46 = call i32 @ziplistGet(ptr noundef nonnull %.03254.us, ptr noundef nonnull %6, ptr noundef nonnull %7, ptr noundef nonnull %8)
  %.not43.us = icmp eq i32 %46, 0
  br i1 %.not43.us, label %.split.us, label %47, !prof !24

47:                                               ; preds = %45
  %48 = load ptr, ptr %6, align 8, !tbaa !32
  %49 = load i32, ptr %7, align 4, !tbaa !5
  %50 = load i64, ptr %8, align 8, !tbaa !10
  %51 = zext nneg i32 %.03552.us to i64
  %52 = getelementptr inbounds nuw %struct.ziplistEntry, ptr %2, i64 %51
  store ptr %48, ptr %52, align 8, !tbaa !47
  %53 = getelementptr inbounds nuw i8, ptr %52, i64 8
  store i32 %49, ptr %53, align 8, !tbaa !49
  %54 = getelementptr inbounds nuw i8, ptr %52, i64 16
  store i64 %50, ptr %54, align 8, !tbaa !50
  %55 = call ptr @ziplistNext(ptr noundef nonnull %0, ptr noundef nonnull %.03254.us)
  %.not44.us = icmp eq ptr %55, null
  br i1 %.not44.us, label %.split56.us, label %56, !prof !24

56:                                               ; preds = %47
  %57 = add i32 %.03353.us, -1
  %58 = add nuw nsw i32 %.03552.us, 1
  br label %61

59:                                               ; preds = %.lr.ph.split.us
  %60 = call ptr @ziplistNext(ptr noundef nonnull %0, ptr noundef nonnull %.03254.us)
  %.not.us = icmp eq ptr %60, null
  br i1 %.not.us, label %.split58.us, label %61, !prof !24

61:                                               ; preds = %59, %56
  %.136.us = phi i32 [ %58, %56 ], [ %.03552.us, %59 ]
  %.134.us = phi i32 [ %57, %56 ], [ %.03353.us, %59 ]
  %.1.us = phi ptr [ %55, %56 ], [ %60, %59 ]
  %62 = call ptr @ziplistNext(ptr noundef nonnull %0, ptr noundef nonnull %.1.us)
  %63 = add i32 %.03751.us, 1
  %64 = icmp ult i32 %.136.us, %spec.select
  %65 = icmp ne ptr %62, null
  %66 = and i1 %64, %65
  br i1 %66, label %.lr.ph.split.us, label %._crit_edge, !llvm.loop !53

.lr.ph.split:                                     ; preds = %.lr.ph, %100
  %.03254 = phi ptr [ %101, %100 ], [ %33, %.lr.ph ]
  %.03353 = phi i32 [ %.134, %100 ], [ %spec.select, %.lr.ph ]
  %.03552 = phi i32 [ %.136, %100 ], [ 0, %.lr.ph ]
  %.03751 = phi i32 [ %102, %100 ], [ 0, %.lr.ph ]
  %67 = call i32 @rand() #17
  %68 = sitofp i32 %67 to double
  %69 = fdiv double %68, 0x41DFFFFFFFC00000
  %70 = uitofp i32 %.03353 to double
  %71 = sub i32 %32, %.03751
  %72 = uitofp i32 %71 to double
  %73 = fdiv double %70, %72
  %74 = fcmp ugt double %69, %73
  br i1 %74, label %98, label %75

75:                                               ; preds = %.lr.ph.split
  %76 = call i32 @ziplistGet(ptr noundef nonnull %.03254, ptr noundef nonnull %6, ptr noundef nonnull %7, ptr noundef nonnull %8)
  %.not43 = icmp eq i32 %76, 0
  br i1 %.not43, label %.split.us, label %77, !prof !24

.split.us:                                        ; preds = %75, %45
  call void @_serverAssert(ptr noundef nonnull @.str.32, ptr noundef nonnull @.str.1, i32 noundef 1668) #17
  call void @abort() #18
  unreachable

77:                                               ; preds = %75
  %78 = load ptr, ptr %6, align 8, !tbaa !32
  %79 = load i32, ptr %7, align 4, !tbaa !5
  %80 = load i64, ptr %8, align 8, !tbaa !10
  %81 = zext nneg i32 %.03552 to i64
  %82 = getelementptr inbounds nuw %struct.ziplistEntry, ptr %2, i64 %81
  store ptr %78, ptr %82, align 8, !tbaa !47
  %83 = getelementptr inbounds nuw i8, ptr %82, i64 8
  store i32 %79, ptr %83, align 8, !tbaa !49
  %84 = getelementptr inbounds nuw i8, ptr %82, i64 16
  store i64 %80, ptr %84, align 8, !tbaa !50
  %85 = call ptr @ziplistNext(ptr noundef nonnull %0, ptr noundef nonnull %.03254)
  %.not44 = icmp eq ptr %85, null
  br i1 %.not44, label %.split56.us, label %86, !prof !24

.split56.us:                                      ; preds = %77, %47
  call void @_serverAssert(ptr noundef nonnull @.str.33, ptr noundef nonnull @.str.1, i32 noundef 1671) #17
  call void @abort() #18
  unreachable

86:                                               ; preds = %77
  %87 = call i32 @ziplistGet(ptr noundef nonnull %85, ptr noundef nonnull %6, ptr noundef nonnull %7, ptr noundef nonnull %8)
  %.not46 = icmp eq i32 %87, 0
  br i1 %.not46, label %88, label %89, !prof !24

88:                                               ; preds = %86
  call void @_serverAssert(ptr noundef nonnull @.str.32, ptr noundef nonnull @.str.1, i32 noundef 1673) #17
  call void @abort() #18
  unreachable

89:                                               ; preds = %86
  %90 = load ptr, ptr %6, align 8, !tbaa !32
  %91 = load i32, ptr %7, align 4, !tbaa !5
  %92 = load i64, ptr %8, align 8, !tbaa !10
  %93 = getelementptr inbounds nuw %struct.ziplistEntry, ptr %3, i64 %81
  store ptr %90, ptr %93, align 8, !tbaa !47
  %94 = getelementptr inbounds nuw i8, ptr %93, i64 8
  store i32 %91, ptr %94, align 8, !tbaa !49
  %95 = getelementptr inbounds nuw i8, ptr %93, i64 16
  store i64 %92, ptr %95, align 8, !tbaa !50
  %96 = add i32 %.03353, -1
  %97 = add nuw nsw i32 %.03552, 1
  br label %100

98:                                               ; preds = %.lr.ph.split
  %99 = call ptr @ziplistNext(ptr noundef nonnull %0, ptr noundef nonnull %.03254)
  %.not = icmp eq ptr %99, null
  br i1 %.not, label %.split58.us, label %100, !prof !24

.split58.us:                                      ; preds = %98, %59
  call void @_serverAssert(ptr noundef nonnull @.str.33, ptr noundef nonnull @.str.1, i32 noundef 1680) #17
  call void @abort() #18
  unreachable

100:                                              ; preds = %98, %89
  %.136 = phi i32 [ %97, %89 ], [ %.03552, %98 ]
  %.134 = phi i32 [ %96, %89 ], [ %.03353, %98 ]
  %.1 = phi ptr [ %85, %89 ], [ %99, %98 ]
  %101 = call ptr @ziplistNext(ptr noundef nonnull %0, ptr noundef nonnull %.1)
  %102 = add i32 %.03751, 1
  %103 = icmp ult i32 %.136, %spec.select
  %104 = icmp ne ptr %101, null
  %105 = and i1 %103, %104
  br i1 %105, label %.lr.ph.split, label %._crit_edge, !llvm.loop !53

._crit_edge:                                      ; preds = %100, %61, %ziplistLen.exit
  %.035.lcssa = phi i32 [ 0, %ziplistLen.exit ], [ %.136.us, %61 ], [ %.136, %100 ]
  call void @llvm.lifetime.end.p0(i64 8, ptr nonnull %8) #17
  call void @llvm.lifetime.end.p0(i64 4, ptr nonnull %7) #17
  call void @llvm.lifetime.end.p0(i64 8, ptr nonnull %6) #17
  ret i32 %.035.lcssa
}